; Function Attrs: mustprogress nofree norecurse nosync nounwind willreturn memory(argmem: read) uwtable
define hidden i64 @_ZNK7nanogui10ImagePanel14preferred_sizeEP10NVGcontext(ptr nocapture noundef nonnull readonly align 8 dereferenceable(216) %0, ptr nocapture readnone %1) unnamed_addr #2 align 2 {
  %3 = getelementptr inbounds i8, ptr %0, i64 48
  %4 = load i32, ptr %3, align 8
  %5 = getelementptr inbounds i8, ptr %0, i64 208
  %6 = load i32, ptr %5, align 8
  %7 = getelementptr inbounds i8, ptr %0, i64 200
  %8 = load i32, ptr %7, align 8
  %9 = shl i32 %6, 1
  %10 = add i32 %9, %8
  %11 = sub i32 %4, %10
  %12 = sitofp i32 %11 to float
  %13 = getelementptr inbounds i8, ptr %0, i64 204
  %14 = load i32, ptr %13, align 4
  %15 = add nsw i32 %14, %8
  %16 = sitofp i32 %15 to float
  %17 = fdiv float %12, %16
  %18 = fptosi float %17 to i32
  %.sroa.speculated.i = tail call i32 @llvm.smax.i32(i32 %18, i32 0)
  %19 = add nuw nsw i32 %.sroa.speculated.i, 1
  %20 = getelementptr inbounds i8, ptr %0, i64 144
  %21 = getelementptr inbounds i8, ptr %0, i64 152
  %22 = load ptr, ptr %21, align 8
  %23 = load ptr, ptr %20, align 8
  %24 = ptrtoint ptr %22 to i64
  %25 = ptrtoint ptr %23 to i64
  %26 = sub i64 %24, %25
  %27 = sdiv exact i64 %26, 40
  %28 = trunc i64 %27 to i32
  %29 = add i32 %.sroa.speculated.i, %28
  %30 = sdiv i32 %29, %19
  %31 = mul nsw i32 %19, %8
  %32 = mul nsw i32 %.sroa.speculated.i, %14
  %33 = add i32 %32, %9
  %34 = add i32 %33, %31
  %35 = mul nsw i32 %30, %8
  %36 = add nsw i32 %30, -1
  %37 = mul nsw i32 %36, %14
  %38 = add i32 %35, %9
  %39 = add i32 %38, %37
  %.sroa.2.0.insert.ext = zext i32 %39 to i64
  %.sroa.2.0.insert.shift = shl nuw i64 %.sroa.2.0.insert.ext, 32
  %.sroa.03.0.insert.ext = zext i32 %34 to i64
  %.sroa.03.0.insert.insert = or disjoint i64 %.sroa.2.0.insert.shift, %.sroa.03.0.insert.ext
  ret i64 %.sroa.03.0.insert.insert
}